; ModuleID = '28/1852.c'
source_filename = "28/1852.c"
target datalayout = "e-m:e-p270:32:32-p271:32:32-p272:64:64-i64:64-f80:128-n8:16:32:64-S128"
target triple = "x86_64-pc-linux-gnu"

@s = common dso_local global [10000 x i8] zeroinitializer, align 16
@a = common dso_local global [10000 x i32] zeroinitializer, align 16
@wlen = common dso_local global [301 x i32] zeroinitializer, align 16
@.str = private unnamed_addr constant [3 x i8] c"%d\00", align 1
@.str.1 = private unnamed_addr constant [4 x i8] c",%d\00", align 1
@.str.2 = private unnamed_addr constant [2 x i8] c"\0A\00", align 1

; Function Attrs: noinline nounwind uwtable
define dso_local i32 @main() #0 {
  %1 = alloca i32, align 4
  %2 = alloca i32, align 4
  %3 = alloca i32, align 4
  %4 = alloca i32, align 4
  %5 = alloca i32, align 4
  %6 = alloca i32, align 4
  store i32 0, i32* %1, align 4
  %7 = call i32 (i8*, ...) bitcast (i32 (...)* @gets to i32 (i8*, ...)*)(i8* getelementptr inbounds ([10000 x i8], [10000 x i8]* @s, i64 0, i64 0))
  %8 = call i64 @strlen(i8* getelementptr inbounds ([10000 x i8], [10000 x i8]* @s, i64 0, i64 0)) #3
  %9 = trunc i64 %8 to i32
  store i32 %9, i32* %2, align 4
  store i32 0, i32* %4, align 4
  store i32 0, i32* %3, align 4
  br label %10

10:                                               ; preds = %114, %0
  %11 = load i32, i32* %3, align 4
  %12 = load i32, i32* %2, align 4
  %13 = icmp slt i32 %11, %12
  br i1 %13, label %14, label %117

14:                                               ; preds = %10
  %15 = load i32, i32* %3, align 4
  %16 = icmp eq i32 %15, 0
  br i1 %16, label %17, label %32

17:                                               ; preds = %14
  %18 = load i32, i32* %3, align 4
  %19 = sext i32 %18 to i64
  %20 = getelementptr inbounds [10000 x i8], [10000 x i8]* @s, i64 0, i64 %19
  %21 = load i8, i8* %20, align 1
  %22 = sext i8 %21 to i32
  %23 = icmp eq i32 %22, 32
  br i1 %23, label %24, label %25

24:                                               ; preds = %17
  store i32 0, i32* %6, align 4
  br label %31

25:                                               ; preds = %17
  store i32 1, i32* %6, align 4
  %26 = load i32, i32* %3, align 4
  %27 = load i32, i32* %4, align 4
  %28 = add nsw i32 %27, 1
  store i32 %28, i32* %4, align 4
  %29 = sext i32 %27 to i64
  %30 = getelementptr inbounds [10000 x i32], [10000 x i32]* @a, i64 0, i64 %29
  store i32 %26, i32* %30, align 4
  br label %31

31:                                               ; preds = %25, %24
  br label %113

32:                                               ; preds = %14
  %33 = load i32, i32* %3, align 4
  %34 = load i32, i32* %2, align 4
  %35 = sub nsw i32 %34, 1
  %36 = icmp slt i32 %33, %35
  br i1 %36, label %37, label %71

37:                                               ; preds = %32
  %38 = load i32, i32* %6, align 4
  %39 = icmp eq i32 %38, 0
  br i1 %39, label %40, label %53

40:                                               ; preds = %37
  %41 = load i32, i32* %3, align 4
  %42 = sext i32 %41 to i64
  %43 = getelementptr inbounds [10000 x i8], [10000 x i8]* @s, i64 0, i64 %42
  %44 = load i8, i8* %43, align 1
  %45 = sext i8 %44 to i32
  %46 = icmp ne i32 %45, 32
  br i1 %46, label %47, label %53

47:                                               ; preds = %40
  store i32 1, i32* %6, align 4
  %48 = load i32, i32* %3, align 4
  %49 = load i32, i32* %4, align 4
  %50 = add nsw i32 %49, 1
  store i32 %50, i32* %4, align 4
  %51 = sext i32 %49 to i64
  %52 = getelementptr inbounds [10000 x i32], [10000 x i32]* @a, i64 0, i64 %51
  store i32 %48, i32* %52, align 4
  br label %70

53:                                               ; preds = %40, %37
  %54 = load i32, i32* %3, align 4
  %55 = sext i32 %54 to i64
  %56 = getelementptr inbounds [10000 x i8], [10000 x i8]* @s, i64 0, i64 %55
  %57 = load i8, i8* %56, align 1
  %58 = sext i8 %57 to i32
  %59 = icmp eq i32 %58, 32
  br i1 %59, label %60, label %69

60:                                               ; preds = %53
  %61 = load i32, i32* %6, align 4
  %62 = icmp eq i32 %61, 1
  br i1 %62, label %63, label %69

63:                                               ; preds = %60
  store i32 0, i32* %6, align 4
  %64 = load i32, i32* %3, align 4
  %65 = load i32, i32* %4, align 4
  %66 = add nsw i32 %65, 1
  store i32 %66, i32* %4, align 4
  %67 = sext i32 %65 to i64
  %68 = getelementptr inbounds [10000 x i32], [10000 x i32]* @a, i64 0, i64 %67
  store i32 %64, i32* %68, align 4
  br label %69

69:                                               ; preds = %63, %60, %53
  br label %70

70:                                               ; preds = %69, %47
  br label %112

71:                                               ; preds = %32
  %72 = load i32, i32* %3, align 4
  %73 = sext i32 %72 to i64
  %74 = getelementptr inbounds [10000 x i8], [10000 x i8]* @s, i64 0, i64 %73
  %75 = load i8, i8* %74, align 1
  %76 = sext i8 %75 to i32
  %77 = icmp eq i32 %76, 32
  br i1 %77, label %78, label %88

78:                                               ; preds = %71
  %79 = load i32, i32* %6, align 4
  %80 = icmp eq i32 %79, 1
  br i1 %80, label %81, label %87

81:                                               ; preds = %78
  %82 = load i32, i32* %3, align 4
  %83 = load i32, i32* %4, align 4
  %84 = add nsw i32 %83, 1
  store i32 %84, i32* %4, align 4
  %85 = sext i32 %83 to i64
  %86 = getelementptr inbounds [10000 x i32], [10000 x i32]* @a, i64 0, i64 %85
  store i32 %82, i32* %86, align 4
  br label %87

87:                                               ; preds = %81, %78
  br label %111

88:                                               ; preds = %71
  %89 = load i32, i32* %6, align 4
  %90 = icmp eq i32 %89, 0
  br i1 %90, label %91, label %103

91:                                               ; preds = %88
  %92 = load i32, i32* %3, align 4
  %93 = load i32, i32* %4, align 4
  %94 = add nsw i32 %93, 1
  store i32 %94, i32* %4, align 4
  %95 = sext i32 %93 to i64
  %96 = getelementptr inbounds [10000 x i32], [10000 x i32]* @a, i64 0, i64 %95
  store i32 %92, i32* %96, align 4
  %97 = load i32, i32* %3, align 4
  %98 = add nsw i32 %97, 1
  %99 = load i32, i32* %4, align 4
  %100 = add nsw i32 %99, 1
  store i32 %100, i32* %4, align 4
  %101 = sext i32 %99 to i64
  %102 = getelementptr inbounds [10000 x i32], [10000 x i32]* @a, i64 0, i64 %101
  store i32 %98, i32* %102, align 4
  br label %110

103:                                              ; preds = %88
  %104 = load i32, i32* %3, align 4
  %105 = add nsw i32 %104, 1
  %106 = load i32, i32* %4, align 4
  %107 = add nsw i32 %106, 1
  store i32 %107, i32* %4, align 4
  %108 = sext i32 %106 to i64
  %109 = getelementptr inbounds [10000 x i32], [10000 x i32]* @a, i64 0, i64 %108
  store i32 %105, i32* %109, align 4
  br label %110

110:                                              ; preds = %103, %91
  br label %111

111:                                              ; preds = %110, %87
  br label %112

112:                                              ; preds = %111, %70
  br label %113

113:                                              ; preds = %112, %31
  br label %114

114:                                              ; preds = %113
  %115 = load i32, i32* %3, align 4
  %116 = add nsw i32 %115, 1
  store i32 %116, i32* %3, align 4
  br label %10

117:                                              ; preds = %10
  store i32 0, i32* %5, align 4
  store i32 0, i32* %3, align 4
  br label %118

118:                                              ; preds = %140, %117
  %119 = load i32, i32* %3, align 4
  %120 = load i32, i32* %4, align 4
  %121 = sdiv i32 %120, 2
  %122 = icmp slt i32 %119, %121
  br i1 %122, label %123, label %143

123:                                              ; preds = %118
  %124 = load i32, i32* %3, align 4
  %125 = mul nsw i32 2, %124
  %126 = add nsw i32 %125, 1
  %127 = sext i32 %126 to i64
  %128 = getelementptr inbounds [10000 x i32], [10000 x i32]* @a, i64 0, i64 %127
  %129 = load i32, i32* %128, align 4
  %130 = load i32, i32* %3, align 4
  %131 = mul nsw i32 2, %130
  %132 = sext i32 %131 to i64
  %133 = getelementptr inbounds [10000 x i32], [10000 x i32]* @a, i64 0, i64 %132
  %134 = load i32, i32* %133, align 4
  %135 = sub nsw i32 %129, %134
  %136 = load i32, i32* %5, align 4
  %137 = add nsw i32 %136, 1
  store i32 %137, i32* %5, align 4
  %138 = sext i32 %136 to i64
  %139 = getelementptr inbounds [301 x i32], [301 x i32]* @wlen, i64 0, i64 %138
  store i32 %135, i32* %139, align 4
  br label %140

140:                                              ; preds = %123
  %141 = load i32, i32* %3, align 4
  %142 = add nsw i32 %141, 1
  store i32 %142, i32* %3, align 4
  br label %118

143:                                              ; preds = %118
  store i32 0, i32* %3, align 4
  br label %144

144:                                              ; preds = %164, %143
  %145 = load i32, i32* %3, align 4
  %146 = load i32, i32* %5, align 4
  %147 = icmp slt i32 %145, %146
  br i1 %147, label %148, label %167

148:                                              ; preds = %144
  %149 = load i32, i32* %3, align 4
  %150 = icmp eq i32 %149, 0
  br i1 %150, label %151, label %157

151:                                              ; preds = %148
  %152 = load i32, i32* %3, align 4
  %153 = sext i32 %152 to i64
  %154 = getelementptr inbounds [301 x i32], [301 x i32]* @wlen, i64 0, i64 %153
  %155 = load i32, i32* %154, align 4
  %156 = call i32 (i8*, ...) @printf(i8* getelementptr inbounds ([3 x i8], [3 x i8]* @.str, i64 0, i64 0), i32 %155)
  br label %163

157:                                              ; preds = %148
  %158 = load i32, i32* %3, align 4
  %159 = sext i32 %158 to i64
  %160 = getelementptr inbounds [301 x i32], [301 x i32]* @wlen, i64 0, i64 %159
  %161 = load i32, i32* %160, align 4
  %162 = call i32 (i8*, ...) @printf(i8* getelementptr inbounds ([4 x i8], [4 x i8]* @.str.1, i64 0, i64 0), i32 %161)
  br label %163

163:                                              ; preds = %157, %151
  br label %164

164:                                              ; preds = %163
  %165 = load i32, i32* %3, align 4
  %166 = add nsw i32 %165, 1
  store i32 %166, i32* %3, align 4
  br label %144

167:                                              ; preds = %144
  %168 = call i32 (i8*, ...) @printf(i8* getelementptr inbounds ([2 x i8], [2 x i8]* @.str.2, i64 0, i64 0))
  ret i32 0
}

declare dso_local i32 @gets(...) #1

; Function Attrs: nounwind readonly
declare dso_local i64 @strlen(i8*) #2

declare dso_local i32 @printf(i8*, ...) #1


!llvm.module.flags = !{!0}
!llvm.ident = !{!1}

!0 = !{i32 1, !"wchar_size", i32 4}
!1 = !{!"clang version 10.0.0-4ubuntu1 "}
